target datalayout = "e-m:e-p270:32:32-p271:32:32-p272:64:64-i64:64-i128:128-f80:128-n8:16:32:64-S128"
target triple = "x86_64-pc-linux-gnu"

%struct.bio_st = type { ptr, ptr, ptr, i32, i32, i32, i32, i32, i32, ptr, ptr, i64, i64 }
%struct.bio_bio_st = type { ptr, i32, i64, i64, i64, ptr, i8, i8, i8, i64 }

; Function Attrs: nounwind uwtable
define internal i64 @bio_ctrl(ptr noundef %0, i32 noundef %1, i64 noundef %2, ptr noundef %3) #0 {
  %5 = alloca ptr, align 8
  %6 = alloca i32, align 4
  %7 = alloca i64, align 8
  %8 = alloca ptr, align 8
  %9 = alloca i64, align 8
  %10 = alloca ptr, align 8
  %11 = alloca ptr, align 8
  %12 = alloca ptr, align 8
  %13 = alloca ptr, align 8
  store ptr %0, ptr %5, align 8, !tbaa !6
  store i32 %1, ptr %6, align 4, !tbaa !40
  store i64 %2, ptr %7, align 8, !tbaa !15
  store ptr %3, ptr %8, align 8, !tbaa !45
  call void @llvm.lifetime.start.p0(i64 8, ptr %9) #8
  call void @llvm.lifetime.start.p0(i64 8, ptr %10) #8
  %14 = load ptr, ptr %5, align 8, !tbaa !6
  %15 = getelementptr inbounds nuw %struct.bio_st, ptr %14, i32 0, i32 9
  %16 = load ptr, ptr %15, align 8, !tbaa !22
  store ptr %16, ptr %10, align 8, !tbaa !23
  %17 = load i32, ptr %6, align 4, !tbaa !40
  switch i32 %17, label %112 [
    i32 137, label %18
    i32 140, label %22
    i32 141, label %42
    i32 147, label %46
    i32 142, label %49
    i32 8, label %52
    i32 9, label %57
    i32 10, label %62
    i32 13, label %78
    i32 11, label %88
    i32 2, label %89
  ]

18:                                               ; preds = %4
  %19 = load ptr, ptr %10, align 8, !tbaa !23
  %20 = getelementptr inbounds nuw %struct.bio_bio_st, ptr %19, i32 0, i32 4
  %21 = load i64, ptr %20, align 8, !tbaa !30
  store i64 %21, ptr %9, align 8, !tbaa !15
  br label %113

22:                                               ; preds = %4
  %23 = load ptr, ptr %10, align 8, !tbaa !23
  %24 = getelementptr inbounds nuw %struct.bio_bio_st, ptr %23, i32 0, i32 0
  %25 = load ptr, ptr %24, align 8, !tbaa !25
  %26 = icmp eq ptr %25, null
  br i1 %26, label %32, label %27

27:                                               ; preds = %22
  %28 = load ptr, ptr %10, align 8, !tbaa !23
  %29 = getelementptr inbounds nuw %struct.bio_bio_st, ptr %28, i32 0, i32 1
  %30 = load i32, ptr %29, align 8, !tbaa !36
  %31 = icmp ne i32 %30, 0
  br i1 %31, label %32, label %33

32:                                               ; preds = %27, %22
  store i64 0, ptr %9, align 8, !tbaa !15
  br label %41

33:                                               ; preds = %27
  %34 = load ptr, ptr %10, align 8, !tbaa !23
  %35 = getelementptr inbounds nuw %struct.bio_bio_st, ptr %34, i32 0, i32 4
  %36 = load i64, ptr %35, align 8, !tbaa !30
  %37 = load ptr, ptr %10, align 8, !tbaa !23
  %38 = getelementptr inbounds nuw %struct.bio_bio_st, ptr %37, i32 0, i32 2
  %39 = load i64, ptr %38, align 8, !tbaa !29
  %40 = sub i64 %36, %39
  store i64 %40, ptr %9, align 8, !tbaa !15
  br label %41

41:                                               ; preds = %33, %32
  br label %113

42:                                               ; preds = %4
  %43 = load ptr, ptr %10, align 8, !tbaa !23
  %44 = getelementptr inbounds nuw %struct.bio_bio_st, ptr %43, i32 0, i32 9
  %45 = load i64, ptr %44, align 8, !tbaa !28
  store i64 %45, ptr %9, align 8, !tbaa !15
  br label %113

46:                                               ; preds = %4
  %47 = load ptr, ptr %10, align 8, !tbaa !23
  %48 = getelementptr inbounds nuw %struct.bio_bio_st, ptr %47, i32 0, i32 9
  store i64 0, ptr %48, align 8, !tbaa !28
  store i64 1, ptr %9, align 8, !tbaa !15
  br label %113

49:                                               ; preds = %4
  %50 = load ptr, ptr %10, align 8, !tbaa !23
  %51 = getelementptr inbounds nuw %struct.bio_bio_st, ptr %50, i32 0, i32 1
  store i32 1, ptr %51, align 8, !tbaa !36
  store i64 1, ptr %9, align 8, !tbaa !15
  br label %113

52:                                               ; preds = %4
  %53 = load ptr, ptr %5, align 8, !tbaa !6
  %54 = getelementptr inbounds nuw %struct.bio_st, ptr %53, i32 0, i32 4
  %55 = load i32, ptr %54, align 4, !tbaa !46
  %56 = sext i32 %55 to i64
  store i64 %56, ptr %9, align 8, !tbaa !15
  br label %113

57:                                               ; preds = %4
  %58 = load i64, ptr %7, align 8, !tbaa !15
  %59 = trunc i64 %58 to i32
  %60 = load ptr, ptr %5, align 8, !tbaa !6
  %61 = getelementptr inbounds nuw %struct.bio_st, ptr %60, i32 0, i32 4
  store i32 %59, ptr %61, align 4, !tbaa !46
  store i64 1, ptr %9, align 8, !tbaa !15
  br label %113

62:                                               ; preds = %4
  %63 = load ptr, ptr %10, align 8, !tbaa !23
  %64 = getelementptr inbounds nuw %struct.bio_bio_st, ptr %63, i32 0, i32 0
  %65 = load ptr, ptr %64, align 8, !tbaa !25
  %66 = icmp ne ptr %65, null
  br i1 %66, label %67, label %76

67:                                               ; preds = %62
  call void @llvm.lifetime.start.p0(i64 8, ptr %11) #8
  %68 = load ptr, ptr %10, align 8, !tbaa !23
  %69 = getelementptr inbounds nuw %struct.bio_bio_st, ptr %68, i32 0, i32 0
  %70 = load ptr, ptr %69, align 8, !tbaa !25
  %71 = getelementptr inbounds nuw %struct.bio_st, ptr %70, i32 0, i32 9
  %72 = load ptr, ptr %71, align 8, !tbaa !22
  store ptr %72, ptr %11, align 8, !tbaa !23
  %73 = load ptr, ptr %11, align 8, !tbaa !23
  %74 = getelementptr inbounds nuw %struct.bio_bio_st, ptr %73, i32 0, i32 2
  %75 = load i64, ptr %74, align 8, !tbaa !29
  store i64 %75, ptr %9, align 8, !tbaa !15
  call void @llvm.lifetime.end.p0(i64 8, ptr %11) #8
  br label %77

76:                                               ; preds = %62
  store i64 0, ptr %9, align 8, !tbaa !15
  br label %77

77:                                               ; preds = %76, %67
  br label %113

78:                                               ; preds = %4
  store i64 0, ptr %9, align 8, !tbaa !15
  %79 = load ptr, ptr %10, align 8, !tbaa !23
  %80 = getelementptr inbounds nuw %struct.bio_bio_st, ptr %79, i32 0, i32 5
  %81 = load ptr, ptr %80, align 8, !tbaa !32
  %82 = icmp ne ptr %81, null
  br i1 %82, label %83, label %87

83:                                               ; preds = %78
  %84 = load ptr, ptr %10, align 8, !tbaa !23
  %85 = getelementptr inbounds nuw %struct.bio_bio_st, ptr %84, i32 0, i32 2
  %86 = load i64, ptr %85, align 8, !tbaa !29
  store i64 %86, ptr %9, align 8, !tbaa !15
  br label %87

87:                                               ; preds = %83, %78
  br label %113

88:                                               ; preds = %4
  store i64 1, ptr %9, align 8, !tbaa !15
  br label %113

89:                                               ; preds = %4
  call void @llvm.lifetime.start.p0(i64 8, ptr %12) #8
  %90 = load ptr, ptr %8, align 8, !tbaa !45
  store ptr %90, ptr %12, align 8, !tbaa !6
  %91 = load ptr, ptr %12, align 8, !tbaa !6
  %92 = icmp ne ptr %91, null
  br i1 %92, label %93, label %110

93:                                               ; preds = %89
  call void @llvm.lifetime.start.p0(i64 8, ptr %13) #8
  %94 = load ptr, ptr %12, align 8, !tbaa !6
  %95 = getelementptr inbounds nuw %struct.bio_st, ptr %94, i32 0, i32 9
  %96 = load ptr, ptr %95, align 8, !tbaa !22
  store ptr %96, ptr %13, align 8, !tbaa !23
  %97 = load ptr, ptr %13, align 8, !tbaa !23
  %98 = getelementptr inbounds nuw %struct.bio_bio_st, ptr %97, i32 0, i32 2
  %99 = load i64, ptr %98, align 8, !tbaa !29
  %100 = icmp eq i64 %99, 0
  br i1 %100, label %101, label %106

101:                                              ; preds = %93
  %102 = load ptr, ptr %13, align 8, !tbaa !23
  %103 = getelementptr inbounds nuw %struct.bio_bio_st, ptr %102, i32 0, i32 1
  %104 = load i32, ptr %103, align 8, !tbaa !36
  %105 = icmp ne i32 %104, 0
  br label %106

106:                                              ; preds = %101, %93
  %107 = phi i1 [ false, %93 ], [ %105, %101 ]
  %108 = zext i1 %107 to i32
  %109 = sext i32 %108 to i64
  store i64 %109, ptr %9, align 8, !tbaa !15
  call void @llvm.lifetime.end.p0(i64 8, ptr %13) #8
  br label %111

110:                                              ; preds = %89
  store i64 1, ptr %9, align 8, !tbaa !15
  br label %111

111:                                              ; preds = %110, %106
  call void @llvm.lifetime.end.p0(i64 8, ptr %12) #8
  br label %113

112:                                              ; preds = %4
  store i64 0, ptr %9, align 8, !tbaa !15
  br label %113

113:                                              ; preds = %112, %111, %88, %87, %77, %57, %52, %49, %46, %42, %41, %18
  %114 = load i64, ptr %9, align 8, !tbaa !15
  call void @llvm.lifetime.end.p0(i64 8, ptr %10) #8
  call void @llvm.lifetime.end.p0(i64 8, ptr %9) #8
  ret i64 %114
}