; Function Attrs: mustprogress nofree norecurse nosync nounwind willreturn memory(readwrite, inaccessiblemem: none) uwtable
define internal i64 @bio_ctrl(ptr noundef captures(none) %0, i32 noundef %1, i64 noundef %2, ptr noundef readonly captures(address_is_null) %3) #2 {
  %5 = getelementptr inbounds nuw i8, ptr %0, i64 48
  %6 = load ptr, ptr %5, align 8, !tbaa !17
  switch i32 %1, label %61 [
    i32 137, label %7
    i32 140, label %10
    i32 141, label %22
    i32 147, label %25
    i32 142, label %27
    i32 8, label %29
    i32 9, label %33
    i32 10, label %36
    i32 13, label %43
    i32 11, label %62
    i32 2, label %49
  ]

7:                                                ; preds = %4
  %8 = getelementptr inbounds nuw i8, ptr %6, i64 32
  %9 = load i64, ptr %8, align 8, !tbaa !23
  br label %62

10:                                               ; preds = %4
  %11 = load ptr, ptr %6, align 8, !tbaa !18
  %12 = icmp eq ptr %11, null
  br i1 %12, label %62, label %13

13:                                               ; preds = %10
  %14 = getelementptr inbounds nuw i8, ptr %6, i64 8
  %15 = load i32, ptr %14, align 8, !tbaa !29
  %.not27 = icmp eq i32 %15, 0
  br i1 %.not27, label %16, label %62

16:                                               ; preds = %13
  %17 = getelementptr inbounds nuw i8, ptr %6, i64 32
  %18 = load i64, ptr %17, align 8, !tbaa !23
  %19 = getelementptr inbounds nuw i8, ptr %6, i64 16
  %20 = load i64, ptr %19, align 8, !tbaa !22
  %21 = sub i64 %18, %20
  br label %62

22:                                               ; preds = %4
  %23 = getelementptr inbounds nuw i8, ptr %6, i64 56
  %24 = load i64, ptr %23, align 8, !tbaa !21
  br label %62

25:                                               ; preds = %4
  %26 = getelementptr inbounds nuw i8, ptr %6, i64 56
  store i64 0, ptr %26, align 8, !tbaa !21
  br label %62

27:                                               ; preds = %4
  %28 = getelementptr inbounds nuw i8, ptr %6, i64 8
  store i32 1, ptr %28, align 8, !tbaa !29
  br label %62

29:                                               ; preds = %4
  %30 = getelementptr inbounds nuw i8, ptr %0, i64 28
  %31 = load i32, ptr %30, align 4, !tbaa !36
  %32 = sext i32 %31 to i64
  br label %62

33:                                               ; preds = %4
  %34 = trunc i64 %2 to i32
  %35 = getelementptr inbounds nuw i8, ptr %0, i64 28
  store i32 %34, ptr %35, align 4, !tbaa !36
  br label %62

36:                                               ; preds = %4
  %37 = load ptr, ptr %6, align 8, !tbaa !18
  %.not26 = icmp eq ptr %37, null
  br i1 %.not26, label %62, label %38

38:                                               ; preds = %36
  %39 = getelementptr inbounds nuw i8, ptr %37, i64 48
  %40 = load ptr, ptr %39, align 8, !tbaa !17
  %41 = getelementptr inbounds nuw i8, ptr %40, i64 16
  %42 = load i64, ptr %41, align 8, !tbaa !22
  br label %62

43:                                               ; preds = %4
  %44 = getelementptr inbounds nuw i8, ptr %6, i64 40
  %45 = load ptr, ptr %44, align 8, !tbaa !25
  %.not25 = icmp eq ptr %45, null
  br i1 %.not25, label %62, label %46

46:                                               ; preds = %43
  %47 = getelementptr inbounds nuw i8, ptr %6, i64 16
  %48 = load i64, ptr %47, align 8, !tbaa !22
  br label %62

49:                                               ; preds = %4
  %.not = icmp eq ptr %3, null
  br i1 %.not, label %62, label %50

50:                                               ; preds = %49
  %51 = getelementptr inbounds nuw i8, ptr %3, i64 48
  %52 = load ptr, ptr %51, align 8, !tbaa !17
  %53 = getelementptr inbounds nuw i8, ptr %52, i64 16
  %54 = load i64, ptr %53, align 8, !tbaa !22
  %55 = icmp eq i64 %54, 0
  br i1 %55, label %56, label %62

56:                                               ; preds = %50
  %57 = getelementptr inbounds nuw i8, ptr %52, i64 8
  %58 = load i32, ptr %57, align 8, !tbaa !29
  %59 = icmp ne i32 %58, 0
  %60 = zext i1 %59 to i64
  br label %62

61:                                               ; preds = %4
  br label %62

62:                                               ; preds = %56, %50, %49, %4, %36, %10, %13, %43, %46, %38, %16, %61, %33, %29, %27, %25, %22, %7
  %.0 = phi i64 [ 0, %61 ], [ %48, %46 ], [ 0, %43 ], [ %42, %38 ], [ 1, %33 ], [ %32, %29 ], [ 1, %27 ], [ 1, %25 ], [ %24, %22 ], [ %21, %16 ], [ %9, %7 ], [ 0, %13 ], [ 0, %10 ], [ 0, %36 ], [ 1, %4 ], [ 0, %50 ], [ %60, %56 ], [ 1, %49 ]
  ret i64 %.0
}